; ModuleID = 'source-C-CXX/59/1256.cpp'
source_filename = "source-C-CXX/59/1256.cpp"
target datalayout = "e-m:e-p270:32:32-p271:32:32-p272:64:64-i64:64-f80:128-n8:16:32:64-S128"
target triple = "x86_64-pc-linux-gnu"

%"class.std::ios_base::Init" = type { i8 }
%"class.std::basic_istream" = type { i32 (...)**, i64, %"class.std::basic_ios" }
%"class.std::basic_ios" = type { %"class.std::ios_base", %"class.std::basic_ostream"*, i8, i8, %"class.std::basic_streambuf"*, %"class.std::ctype"*, %"class.std::num_put"*, %"class.std::num_get"* }
%"class.std::ios_base" = type { i32 (...)**, i64, i64, i32, i32, i32, %"struct.std::ios_base::_Callback_list"*, %"struct.std::ios_base::_Words", [8 x %"struct.std::ios_base::_Words"], i32, %"struct.std::ios_base::_Words"*, %"class.std::locale" }
%"struct.std::ios_base::_Callback_list" = type { %"struct.std::ios_base::_Callback_list"*, void (i32, %"class.std::ios_base"*, i32)*, i32, i32 }
%"struct.std::ios_base::_Words" = type { i8*, i64 }
%"class.std::locale" = type { %"class.std::locale::_Impl"* }
%"class.std::locale::_Impl" = type { i32, %"class.std::locale::facet"**, i64, %"class.std::locale::facet"**, i8** }
%"class.std::locale::facet" = type <{ i32 (...)**, i32, [4 x i8] }>
%"class.std::basic_ostream" = type { i32 (...)**, %"class.std::basic_ios" }
%"class.std::basic_streambuf" = type { i32 (...)**, i8*, i8*, i8*, i8*, i8*, i8*, %"class.std::locale" }
%"class.std::ctype" = type <{ %"class.std::locale::facet.base", [4 x i8], %struct.__locale_struct*, i8, [7 x i8], i32*, i32*, i16*, i8, [256 x i8], [256 x i8], i8, [6 x i8] }>
%"class.std::locale::facet.base" = type <{ i32 (...)**, i32 }>
%struct.__locale_struct = type { [13 x %struct.__locale_data*], i16*, i32*, i32*, [13 x i8*] }
%struct.__locale_data = type opaque
%"class.std::num_put" = type { %"class.std::locale::facet.base", [4 x i8] }
%"class.std::num_get" = type { %"class.std::locale::facet.base", [4 x i8] }

@_ZStL8__ioinit = internal global %"class.std::ios_base::Init" zeroinitializer, align 1
@__dso_handle = external hidden global i8
@_ZSt3cin = external global %"class.std::basic_istream", align 8
@_ZSt4cout = external global %"class.std::basic_ostream", align 8
@.str = private unnamed_addr constant [2 x i8] c" \00", align 1
@.str.1 = private unnamed_addr constant [6 x i8] c"empty\00", align 1
@llvm.global_ctors = appending global [1 x { i32, void ()*, i8* }] [{ i32, void ()*, i8* } { i32 65535, void ()* @_GLOBAL__sub_I_1256.cpp, i8* null }]

declare void @_ZNSt8ios_base4InitC1Ev(%"class.std::ios_base::Init"* nonnull align 1 dereferenceable(1)) unnamed_addr #0

; Function Attrs: nounwind
declare void @_ZNSt8ios_base4InitD1Ev(%"class.std::ios_base::Init"* nonnull align 1 dereferenceable(1)) unnamed_addr #1

; Function Attrs: nofree nounwind
declare i32 @__cxa_atexit(void (i8*)*, i8*, i8*) local_unnamed_addr #2

; Function Attrs: mustprogress nofree nounwind sspstrong uwtable
define dso_local i32 @_Z3teli(i32 %0) local_unnamed_addr #3 {
  %2 = icmp eq i32 %0, 1
  br i1 %2, label %24, label %3

3:                                                ; preds = %1
  %4 = sitofp i32 %0 to double
  %5 = tail call double @sqrt(double %4) #9
  %6 = fptosi double %5 to i32
  %7 = icmp slt i32 %6, 2
  br i1 %7, label %17, label %8

8:                                                ; preds = %3, %12
  %9 = phi i32 [ %13, %12 ], [ 2, %3 ]
  %10 = srem i32 %0, %9
  %11 = icmp eq i32 %10, 0
  br i1 %11, label %17, label %12

12:                                               ; preds = %8
  %13 = add nuw nsw i32 %9, 1
  %14 = tail call double @sqrt(double %4) #9
  %15 = fptosi double %14 to i32
  %16 = icmp slt i32 %9, %15
  br i1 %16, label %8, label %17, !llvm.loop !5

17:                                               ; preds = %12, %8, %3
  %18 = phi i32 [ 2, %3 ], [ %9, %8 ], [ %13, %12 ]
  %19 = tail call double @sqrt(double %4) #9
  %20 = fptosi double %19 to i32
  %21 = add nsw i32 %20, 1
  %22 = icmp eq i32 %18, %21
  %23 = zext i1 %22 to i32
  br label %24

24:                                               ; preds = %1, %17
  %25 = phi i32 [ %23, %17 ], [ 0, %1 ]
  ret i32 %25
}

; Function Attrs: argmemonly mustprogress nofree nosync nounwind willreturn
declare void @llvm.lifetime.start.p0i8(i64 immarg, i8* nocapture) #4

; Function Attrs: argmemonly mustprogress nofree nosync nounwind willreturn
declare void @llvm.lifetime.end.p0i8(i64 immarg, i8* nocapture) #4

; Function Attrs: mustprogress norecurse sspstrong uwtable
define dso_local i32 @main() local_unnamed_addr #5 {
  %1 = alloca i32, align 4
  %2 = bitcast i32* %1 to i8*
  call void @llvm.lifetime.start.p0i8(i64 4, i8* nonnull %2) #9
  %3 = call nonnull align 8 dereferenceable(16) %"class.std::basic_istream"* @_ZNSirsERi(%"class.std::basic_istream"* nonnull align 8 dereferenceable(16) @_ZSt3cin, i32* nonnull align 4 dereferenceable(4) %1)
  %4 = load i32, i32* %1, align 4, !tbaa !7
  %5 = icmp sgt i32 %4, 3
  br i1 %5, label %8, label %91

6:                                                ; preds = %85
  %7 = icmp eq i32 %86, 0
  br i1 %7, label %91, label %120

8:                                                ; preds = %0, %85
  %9 = phi i32 [ %87, %85 ], [ 2, %0 ]
  %10 = phi i32 [ %86, %85 ], [ 0, %0 ]
  %11 = sitofp i32 %9 to double
  %12 = call double @sqrt(double %11) #9
  %13 = fptosi double %12 to i32
  %14 = icmp slt i32 %13, 2
  br i1 %14, label %24, label %15

15:                                               ; preds = %8, %19
  %16 = phi i32 [ %20, %19 ], [ 2, %8 ]
  %17 = urem i32 %9, %16
  %18 = icmp eq i32 %17, 0
  br i1 %18, label %24, label %19

19:                                               ; preds = %15
  %20 = add nuw nsw i32 %16, 1
  %21 = call double @sqrt(double %11) #9
  %22 = fptosi double %21 to i32
  %23 = icmp slt i32 %16, %22
  br i1 %23, label %15, label %24, !llvm.loop !5

24:                                               ; preds = %15, %19, %8
  %25 = phi i32 [ 2, %8 ], [ %20, %19 ], [ %16, %15 ]
  %26 = call double @sqrt(double %11) #9
  %27 = fptosi double %26 to i32
  %28 = add nsw i32 %27, 1
  %29 = icmp eq i32 %25, %28
  br i1 %29, label %30, label %85

30:                                               ; preds = %24
  %31 = add nuw nsw i32 %9, 2
  %32 = sitofp i32 %31 to double
  %33 = call double @sqrt(double %32) #9
  %34 = fptosi double %33 to i32
  %35 = icmp slt i32 %34, 2
  br i1 %35, label %45, label %36

36:                                               ; preds = %30, %40
  %37 = phi i32 [ %41, %40 ], [ 2, %30 ]
  %38 = urem i32 %31, %37
  %39 = icmp eq i32 %38, 0
  br i1 %39, label %45, label %40

40:                                               ; preds = %36
  %41 = add nuw nsw i32 %37, 1
  %42 = call double @sqrt(double %32) #9
  %43 = fptosi double %42 to i32
  %44 = icmp slt i32 %37, %43
  br i1 %44, label %36, label %45, !llvm.loop !5

45:                                               ; preds = %36, %40, %30
  %46 = phi i32 [ 2, %30 ], [ %41, %40 ], [ %37, %36 ]
  %47 = call double @sqrt(double %32) #9
  %48 = fptosi double %47 to i32
  %49 = add nsw i32 %48, 1
  %50 = icmp eq i32 %46, %49
  br i1 %50, label %51, label %85

51:                                               ; preds = %45
  %52 = call nonnull align 8 dereferenceable(8) %"class.std::basic_ostream"* @_ZNSolsEi(%"class.std::basic_ostream"* nonnull align 8 dereferenceable(8) @_ZSt4cout, i32 %9)
  %53 = call nonnull align 8 dereferenceable(8) %"class.std::basic_ostream"* @_ZSt16__ostream_insertIcSt11char_traitsIcEERSt13basic_ostreamIT_T0_ES6_PKS3_l(%"class.std::basic_ostream"* nonnull align 8 dereferenceable(8) %52, i8* nonnull getelementptr inbounds ([2 x i8], [2 x i8]* @.str, i64 0, i64 0), i64 1)
  %54 = call nonnull align 8 dereferenceable(8) %"class.std::basic_ostream"* @_ZNSolsEi(%"class.std::basic_ostream"* nonnull align 8 dereferenceable(8) %52, i32 %31)
  %55 = bitcast %"class.std::basic_ostream"* %54 to i8**
  %56 = load i8*, i8** %55, align 8, !tbaa !11
  %57 = getelementptr i8, i8* %56, i64 -24
  %58 = bitcast i8* %57 to i64*
  %59 = load i64, i64* %58, align 8
  %60 = bitcast %"class.std::basic_ostream"* %54 to i8*
  %61 = add nsw i64 %59, 240
  %62 = getelementptr inbounds i8, i8* %60, i64 %61
  %63 = bitcast i8* %62 to %"class.std::ctype"**
  %64 = load %"class.std::ctype"*, %"class.std::ctype"** %63, align 8, !tbaa !13
  %65 = icmp eq %"class.std::ctype"* %64, null
  br i1 %65, label %66, label %67

66:                                               ; preds = %51
  call void @_ZSt16__throw_bad_castv() #10
  unreachable

67:                                               ; preds = %51
  %68 = getelementptr inbounds %"class.std::ctype", %"class.std::ctype"* %64, i64 0, i32 8
  %69 = load i8, i8* %68, align 8, !tbaa !17
  %70 = icmp eq i8 %69, 0
  br i1 %70, label %74, label %71

71:                                               ; preds = %67
  %72 = getelementptr inbounds %"class.std::ctype", %"class.std::ctype"* %64, i64 0, i32 9, i64 10
  %73 = load i8, i8* %72, align 1, !tbaa !19
  br label %80

74:                                               ; preds = %67
  call void @_ZNKSt5ctypeIcE13_M_widen_initEv(%"class.std::ctype"* nonnull align 8 dereferenceable(570) %64)
  %75 = bitcast %"class.std::ctype"* %64 to i8 (%"class.std::ctype"*, i8)***
  %76 = load i8 (%"class.std::ctype"*, i8)**, i8 (%"class.std::ctype"*, i8)*** %75, align 8, !tbaa !11
  %77 = getelementptr inbounds i8 (%"class.std::ctype"*, i8)*, i8 (%"class.std::ctype"*, i8)** %76, i64 6
  %78 = load i8 (%"class.std::ctype"*, i8)*, i8 (%"class.std::ctype"*, i8)** %77, align 8
  %79 = call signext i8 %78(%"class.std::ctype"* nonnull align 8 dereferenceable(570) %64, i8 signext 10)
  br label %80

80:                                               ; preds = %71, %74
  %81 = phi i8 [ %73, %71 ], [ %79, %74 ]
  %82 = call nonnull align 8 dereferenceable(8) %"class.std::basic_ostream"* @_ZNSo3putEc(%"class.std::basic_ostream"* nonnull align 8 dereferenceable(8) %54, i8 signext %81)
  %83 = call nonnull align 8 dereferenceable(8) %"class.std::basic_ostream"* @_ZNSo5flushEv(%"class.std::basic_ostream"* nonnull align 8 dereferenceable(8) %82)
  %84 = add nsw i32 %10, 1
  br label %85

85:                                               ; preds = %24, %80, %45
  %86 = phi i32 [ %84, %80 ], [ %10, %45 ], [ %10, %24 ]
  %87 = add nuw nsw i32 %9, 1
  %88 = load i32, i32* %1, align 4, !tbaa !7
  %89 = add nsw i32 %88, -1
  %90 = icmp slt i32 %87, %89
  br i1 %90, label %8, label %6, !llvm.loop !20

91:                                               ; preds = %0, %6
  %92 = call nonnull align 8 dereferenceable(8) %"class.std::basic_ostream"* @_ZSt16__ostream_insertIcSt11char_traitsIcEERSt13basic_ostreamIT_T0_ES6_PKS3_l(%"class.std::basic_ostream"* nonnull align 8 dereferenceable(8) @_ZSt4cout, i8* nonnull getelementptr inbounds ([6 x i8], [6 x i8]* @.str.1, i64 0, i64 0), i64 5)
  %93 = load i8*, i8** bitcast (%"class.std::basic_ostream"* @_ZSt4cout to i8**), align 8, !tbaa !11
  %94 = getelementptr i8, i8* %93, i64 -24
  %95 = bitcast i8* %94 to i64*
  %96 = load i64, i64* %95, align 8
  %97 = add nsw i64 %96, 240
  %98 = getelementptr inbounds i8, i8* bitcast (%"class.std::basic_ostream"* @_ZSt4cout to i8*), i64 %97
  %99 = bitcast i8* %98 to %"class.std::ctype"**
  %100 = load %"class.std::ctype"*, %"class.std::ctype"** %99, align 8, !tbaa !13
  %101 = icmp eq %"class.std::ctype"* %100, null
  br i1 %101, label %102, label %103

102:                                              ; preds = %91
  call void @_ZSt16__throw_bad_castv() #10
  unreachable

103:                                              ; preds = %91
  %104 = getelementptr inbounds %"class.std::ctype", %"class.std::ctype"* %100, i64 0, i32 8
  %105 = load i8, i8* %104, align 8, !tbaa !17
  %106 = icmp eq i8 %105, 0
  br i1 %106, label %110, label %107

107:                                              ; preds = %103
  %108 = getelementptr inbounds %"class.std::ctype", %"class.std::ctype"* %100, i64 0, i32 9, i64 10
  %109 = load i8, i8* %108, align 1, !tbaa !19
  br label %116

110:                                              ; preds = %103
  call void @_ZNKSt5ctypeIcE13_M_widen_initEv(%"class.std::ctype"* nonnull align 8 dereferenceable(570) %100)
  %111 = bitcast %"class.std::ctype"* %100 to i8 (%"class.std::ctype"*, i8)***
  %112 = load i8 (%"class.std::ctype"*, i8)**, i8 (%"class.std::ctype"*, i8)*** %111, align 8, !tbaa !11
  %113 = getelementptr inbounds i8 (%"class.std::ctype"*, i8)*, i8 (%"class.std::ctype"*, i8)** %112, i64 6
  %114 = load i8 (%"class.std::ctype"*, i8)*, i8 (%"class.std::ctype"*, i8)** %113, align 8
  %115 = call signext i8 %114(%"class.std::ctype"* nonnull align 8 dereferenceable(570) %100, i8 signext 10)
  br label %116

116:                                              ; preds = %107, %110
  %117 = phi i8 [ %109, %107 ], [ %115, %110 ]
  %118 = call nonnull align 8 dereferenceable(8) %"class.std::basic_ostream"* @_ZNSo3putEc(%"class.std::basic_ostream"* nonnull align 8 dereferenceable(8) @_ZSt4cout, i8 signext %117)
  %119 = call nonnull align 8 dereferenceable(8) %"class.std::basic_ostream"* @_ZNSo5flushEv(%"class.std::basic_ostream"* nonnull align 8 dereferenceable(8) %118)
  br label %120

120:                                              ; preds = %116, %6
  call void @llvm.lifetime.end.p0i8(i64 4, i8* nonnull %2) #9
  ret i32 0
}

declare nonnull align 8 dereferenceable(16) %"class.std::basic_istream"* @_ZNSirsERi(%"class.std::basic_istream"* nonnull align 8 dereferenceable(16), i32* nonnull align 4 dereferenceable(4)) local_unnamed_addr #0

declare nonnull align 8 dereferenceable(8) %"class.std::basic_ostream"* @_ZNSolsEi(%"class.std::basic_ostream"* nonnull align 8 dereferenceable(8), i32) local_unnamed_addr #0

; Function Attrs: mustprogress nofree nounwind willreturn
declare double @sqrt(double) local_unnamed_addr #6

declare nonnull align 8 dereferenceable(8) %"class.std::basic_ostream"* @_ZSt16__ostream_insertIcSt11char_traitsIcEERSt13basic_ostreamIT_T0_ES6_PKS3_l(%"class.std::basic_ostream"* nonnull align 8 dereferenceable(8), i8*, i64) local_unnamed_addr #0

declare nonnull align 8 dereferenceable(8) %"class.std::basic_ostream"* @_ZNSo3putEc(%"class.std::basic_ostream"* nonnull align 8 dereferenceable(8), i8 signext) local_unnamed_addr #0

declare nonnull align 8 dereferenceable(8) %"class.std::basic_ostream"* @_ZNSo5flushEv(%"class.std::basic_ostream"* nonnull align 8 dereferenceable(8)) local_unnamed_addr #0

; Function Attrs: noreturn
declare void @_ZSt16__throw_bad_castv() local_unnamed_addr #7

declare void @_ZNKSt5ctypeIcE13_M_widen_initEv(%"class.std::ctype"* nonnull align 8 dereferenceable(570)) local_unnamed_addr #0

; Function Attrs: sspstrong uwtable
define internal void @_GLOBAL__sub_I_1256.cpp() #8 section ".text.startup" {
  tail call void @_ZNSt8ios_base4InitC1Ev(%"class.std::ios_base::Init"* nonnull align 1 dereferenceable(1) @_ZStL8__ioinit)
  %1 = tail call i32 @__cxa_atexit(void (i8*)* bitcast (void (%"class.std::ios_base::Init"*)* @_ZNSt8ios_base4InitD1Ev to void (i8*)*), i8* getelementptr inbounds (%"class.std::ios_base::Init", %"class.std::ios_base::Init"* @_ZStL8__ioinit, i64 0, i32 0), i8* nonnull @__dso_handle) #9
  ret void
}


!llvm.module.flags = !{!0, !1, !2, !3}
!llvm.ident = !{!4}

!0 = !{i32 1, !"wchar_size", i32 4}
!1 = !{i32 7, !"PIC Level", i32 2}
!2 = !{i32 7, !"PIE Level", i32 2}
!3 = !{i32 7, !"uwtable", i32 1}
!4 = !{!"clang version 13.0.0"}
!5 = distinct !{!5, !6}
!6 = !{!"llvm.loop.mustprogress"}
!7 = !{!8, !8, i64 0}
!8 = !{!"int", !9, i64 0}
!9 = !{!"omnipotent char", !10, i64 0}
!10 = !{!"Simple C++ TBAA"}
!11 = !{!12, !12, i64 0}
!12 = !{!"vtable pointer", !10, i64 0}
!13 = !{!14, !15, i64 240}
!14 = !{!"_ZTSSt9basic_iosIcSt11char_traitsIcEE", !15, i64 216, !9, i64 224, !16, i64 225, !15, i64 232, !15, i64 240, !15, i64 248, !15, i64 256}
!15 = !{!"any pointer", !9, i64 0}
!16 = !{!"bool", !9, i64 0}
!17 = !{!18, !9, i64 56}
!18 = !{!"_ZTSSt5ctypeIcE", !15, i64 16, !16, i64 24, !15, i64 32, !15, i64 40, !15, i64 48, !9, i64 56, !9, i64 57, !9, i64 313, !9, i64 569}
!19 = !{!9, !9, i64 0}
!20 = distinct !{!20, !6}
